target datalayout = "e-m:e-p270:32:32-p271:32:32-p272:64:64-i64:64-i128:128-f80:128-n8:16:32:64-S128"
target triple = "x86_64-pc-linux-gnu"

%struct.H5O_msg_class_t = type { i32, ptr, i64, i32, ptr, ptr, ptr, ptr, ptr, ptr, ptr, ptr, ptr, ptr, ptr, ptr, ptr, ptr, ptr, ptr }
%struct.H5O_t = type { %struct.H5C_cache_entry_t, i64, i64, i8, i64, i8, i32, i8, i8, i64, i64, i64, i64, i32, i32, i64, i64, ptr, i64, i64, i64, i64, ptr, i8, ptr }
%struct.H5C_cache_entry_t = type { ptr, i64, i64, ptr, i8, ptr, i8, i8, i8, i8, i32, i8, i8, i8, i8, i8, i32, ptr, i32, i32, i32, i32, i32, i8, i8, ptr, ptr, ptr, ptr, ptr, ptr, i8, i32, i8, i64, ptr, i64, i64, i32, i8, i32, i32, i8, ptr, ptr, ptr }
%struct.H5O_mesg_t = type { ptr, i8, i8, i32, i32, ptr, ptr, i64 }

@H5O_init_g = external global i8, align 1
@H5_libterm_g = external global i8, align 1
@.str = private unnamed_addr constant [104 x i8] c"generated/home/dtcxzyw/WorkSpace/Projects/compilers/llvm-opt-benchmark/bench/hdf5/hdf5/src/H5Omessage.c\00", align 1
@H5E_FUNC_g = external global i64, align 8
@H5E_CANTINIT_g = external global i64, align 8
@.str.1 = private unnamed_addr constant [32 x i8] c"interface initialization failed\00", align 1
@H5E_OHDR_g = external global i64, align 8
@H5E_CANTENCODE_g = external global i64, align 8
@__func__.H5O_msg_flush = private unnamed_addr constant [14 x i8] c"H5O_msg_flush\00", align 1
@H5O_MSG_UNKNOWN = external constant [1 x %struct.H5O_msg_class_t], align 16
@.str.45 = private unnamed_addr constant [39 x i8] c"unable to encode object header message\00", align 1

; Function Attrs: nounwind uwtable
define i32 @H5O_msg_flush(ptr noundef %0, ptr noundef %1, ptr noundef %2) #0 {
  %4 = alloca ptr, align 8
  %5 = alloca ptr, align 8
  %6 = alloca ptr, align 8
  %7 = alloca ptr, align 8
  %8 = alloca i32, align 4
  %9 = alloca i32, align 4
  %10 = alloca i8, align 1
  store ptr %0, ptr %4, align 8, !tbaa !22
  store ptr %1, ptr %5, align 8, !tbaa !11
  store ptr %2, ptr %6, align 8, !tbaa !47
  call void @llvm.lifetime.start.p0(i64 8, ptr %7) #5
  call void @llvm.lifetime.start.p0(i64 4, ptr %8) #5
  call void @llvm.lifetime.start.p0(i64 4, ptr %9) #5
  store i32 0, ptr %9, align 4, !tbaa !8
  call void @llvm.lifetime.start.p0(i64 1, ptr %10) #5
  store i8 0, ptr %10, align 1, !tbaa !13
  %11 = load i8, ptr @H5O_init_g, align 1, !tbaa !13, !range !15, !noundef !16
  %12 = trunc i8 %11 to i1
  br i1 %12, label %17, label %13

13:                                               ; preds = %3
  %14 = load i8, ptr @H5_libterm_g, align 1, !tbaa !13, !range !15, !noundef !16
  %15 = trunc i8 %14 to i1
  %16 = xor i1 %15, true
  br label %17

17:                                               ; preds = %13, %3
  %18 = phi i1 [ false, %3 ], [ %16, %13 ]
  %19 = xor i1 %18, true
  %20 = xor i1 %19, true
  %21 = zext i1 %20 to i32
  %22 = sext i32 %21 to i64
  %23 = call i64 @llvm.expect.i64(i64 %22, i64 0)
  %24 = icmp ne i64 %23, 0
  br i1 %24, label %25, label %48

25:                                               ; preds = %17
  store i8 1, ptr @H5O_init_g, align 1, !tbaa !13
  %26 = call i32 @H5O__init_package()
  %27 = icmp slt i32 %26, 0
  br i1 %27, label %28, label %47

28:                                               ; preds = %25
  store i8 0, ptr @H5O_init_g, align 1, !tbaa !13
  br label %29

29:                                               ; preds = %28
  br label %30

30:                                               ; preds = %29
  br label %31

31:                                               ; preds = %30
  %32 = load i64, ptr @H5E_FUNC_g, align 8, !tbaa !17
  %33 = load i64, ptr @H5E_CANTINIT_g, align 8, !tbaa !17
  %34 = call i32 (ptr, ptr, i32, i64, i64, ptr, ...) @H5E_printf_stack(ptr noundef @.str, ptr noundef @__func__.H5O_msg_flush, i32 noundef 1905, i64 noundef %32, i64 noundef %33, ptr noundef @.str.1)
  br label %35

35:                                               ; preds = %31
  br label %36

36:                                               ; preds = %35
  store i8 1, ptr %10, align 1, !tbaa !13
  %37 = load i8, ptr %10, align 1, !tbaa !13, !range !15, !noundef !16
  %38 = trunc i8 %37 to i1
  %39 = zext i1 %38 to i8
  store i8 %39, ptr %10, align 1, !tbaa !13
  br label %40

40:                                               ; preds = %36
  br label %41

41:                                               ; preds = %40
  br label %42

42:                                               ; preds = %41
  store i32 -1, ptr %9, align 4, !tbaa !8
  br label %252

43:                                               ; No predecessors!
  br label %44

44:                                               ; preds = %43
  br label %45

45:                                               ; preds = %44
  br label %46

46:                                               ; preds = %45
  br label %47

47:                                               ; preds = %46, %25
  br label %48

48:                                               ; preds = %47, %17
  %49 = load i8, ptr @H5O_init_g, align 1, !tbaa !13, !range !15, !noundef !16
  %50 = trunc i8 %49 to i1
  br i1 %50, label %55, label %51

51:                                               ; preds = %48
  %52 = load i8, ptr @H5_libterm_g, align 1, !tbaa !13, !range !15, !noundef !16
  %53 = trunc i8 %52 to i1
  %54 = xor i1 %53, true
  br label %55

55:                                               ; preds = %51, %48
  %56 = phi i1 [ true, %48 ], [ %54, %51 ]
  %57 = xor i1 %56, true
  %58 = xor i1 %57, true
  %59 = zext i1 %58 to i32
  %60 = sext i32 %59 to i64
  %61 = call i64 @llvm.expect.i64(i64 %60, i64 1)
  %62 = icmp ne i64 %61, 0
  br i1 %62, label %63, label %253

63:                                               ; preds = %55
  %64 = load ptr, ptr %6, align 8, !tbaa !47
  %65 = getelementptr inbounds nuw %struct.H5O_mesg_t, ptr %64, i32 0, i32 6
  %66 = load ptr, ptr %65, align 8, !tbaa !63
  %67 = load ptr, ptr %5, align 8, !tbaa !11
  %68 = getelementptr inbounds nuw %struct.H5O_t, ptr %67, i32 0, i32 7
  %69 = load i8, ptr %68, align 8, !tbaa !92
  %70 = zext i8 %69 to i32
  %71 = icmp eq i32 %70, 1
  br i1 %71, label %72, label %73

72:                                               ; preds = %63
  br label %82

73:                                               ; preds = %63
  %74 = load ptr, ptr %5, align 8, !tbaa !11
  %75 = getelementptr inbounds nuw %struct.H5O_t, ptr %74, i32 0, i32 8
  %76 = load i8, ptr %75, align 1, !tbaa !93
  %77 = zext i8 %76 to i32
  %78 = and i32 %77, 4
  %79 = icmp ne i32 %78, 0
  %80 = select i1 %79, i32 2, i32 0
  %81 = add nsw i32 4, %80
  br label %82

82:                                               ; preds = %73, %72
  %83 = phi i32 [ 8, %72 ], [ %81, %73 ]
  %84 = zext i32 %83 to i64
  %85 = sub i64 0, %84
  %86 = getelementptr inbounds i8, ptr %66, i64 %85
  store ptr %86, ptr %7, align 8, !tbaa !99
  %87 = load ptr, ptr %6, align 8, !tbaa !47
  %88 = getelementptr inbounds nuw %struct.H5O_mesg_t, ptr %87, i32 0, i32 0
  %89 = load ptr, ptr %88, align 8, !tbaa !55
  %90 = icmp eq ptr %89, @H5O_MSG_UNKNOWN
  br i1 %90, label %91, label %96

91:                                               ; preds = %82
  %92 = load ptr, ptr %6, align 8, !tbaa !47
  %93 = getelementptr inbounds nuw %struct.H5O_mesg_t, ptr %92, i32 0, i32 5
  %94 = load ptr, ptr %93, align 8, !tbaa !50
  %95 = load i32, ptr %94, align 4, !tbaa !8
  store i32 %95, ptr %8, align 4, !tbaa !8
  br label %104

96:                                               ; preds = %82
  %97 = load ptr, ptr %6, align 8, !tbaa !47
  %98 = getelementptr inbounds nuw %struct.H5O_mesg_t, ptr %97, i32 0, i32 0
  %99 = load ptr, ptr %98, align 8, !tbaa !55
  %100 = getelementptr inbounds nuw %struct.H5O_msg_class_t, ptr %99, i32 0, i32 0
  %101 = load i32, ptr %100, align 8, !tbaa !29
  %102 = trunc i32 %101 to i8
  %103 = zext i8 %102 to i32
  store i32 %103, ptr %8, align 4, !tbaa !8
  br label %104

104:                                              ; preds = %96, %91
  %105 = load ptr, ptr %5, align 8, !tbaa !11
  %106 = getelementptr inbounds nuw %struct.H5O_t, ptr %105, i32 0, i32 7
  %107 = load i8, ptr %106, align 8, !tbaa !92
  %108 = zext i8 %107 to i32
  %109 = icmp eq i32 %108, 1
  br i1 %109, label %110, label %127

110:                                              ; preds = %104
  br label %111

111:                                              ; preds = %110
  %112 = load i32, ptr %8, align 4, !tbaa !8
  %113 = and i32 %112, 255
  %114 = trunc i32 %113 to i8
  %115 = load ptr, ptr %7, align 8, !tbaa !99
  store i8 %114, ptr %115, align 1, !tbaa !69
  %116 = load ptr, ptr %7, align 8, !tbaa !99
  %117 = getelementptr inbounds nuw i8, ptr %116, i32 1
  store ptr %117, ptr %7, align 8, !tbaa !99
  %118 = load i32, ptr %8, align 4, !tbaa !8
  %119 = lshr i32 %118, 8
  %120 = and i32 %119, 255
  %121 = trunc i32 %120 to i8
  %122 = load ptr, ptr %7, align 8, !tbaa !99
  store i8 %121, ptr %122, align 1, !tbaa !69
  %123 = load ptr, ptr %7, align 8, !tbaa !99
  %124 = getelementptr inbounds nuw i8, ptr %123, i32 1
  store ptr %124, ptr %7, align 8, !tbaa !99
  br label %125

125:                                              ; preds = %111
  br label %126

126:                                              ; preds = %125
  br label %132

127:                                              ; preds = %104
  %128 = load i32, ptr %8, align 4, !tbaa !8
  %129 = trunc i32 %128 to i8
  %130 = load ptr, ptr %7, align 8, !tbaa !99
  %131 = getelementptr inbounds nuw i8, ptr %130, i32 1
  store ptr %131, ptr %7, align 8, !tbaa !99
  store i8 %129, ptr %130, align 1, !tbaa !69
  br label %132

132:                                              ; preds = %127, %126
  br label %133

133:                                              ; preds = %132
  %134 = load ptr, ptr %6, align 8, !tbaa !47
  %135 = getelementptr inbounds nuw %struct.H5O_mesg_t, ptr %134, i32 0, i32 7
  %136 = load i64, ptr %135, align 8, !tbaa !62
  %137 = trunc i64 %136 to i32
  %138 = and i32 %137, 255
  %139 = trunc i32 %138 to i8
  %140 = load ptr, ptr %7, align 8, !tbaa !99
  store i8 %139, ptr %140, align 1, !tbaa !69
  %141 = load ptr, ptr %7, align 8, !tbaa !99
  %142 = getelementptr inbounds nuw i8, ptr %141, i32 1
  store ptr %142, ptr %7, align 8, !tbaa !99
  %143 = load ptr, ptr %6, align 8, !tbaa !47
  %144 = getelementptr inbounds nuw %struct.H5O_mesg_t, ptr %143, i32 0, i32 7
  %145 = load i64, ptr %144, align 8, !tbaa !62
  %146 = trunc i64 %145 to i32
  %147 = lshr i32 %146, 8
  %148 = and i32 %147, 255
  %149 = trunc i32 %148 to i8
  %150 = load ptr, ptr %7, align 8, !tbaa !99
  store i8 %149, ptr %150, align 1, !tbaa !69
  %151 = load ptr, ptr %7, align 8, !tbaa !99
  %152 = getelementptr inbounds nuw i8, ptr %151, i32 1
  store ptr %152, ptr %7, align 8, !tbaa !99
  br label %153

153:                                              ; preds = %133
  br label %154

154:                                              ; preds = %153
  %155 = load ptr, ptr %6, align 8, !tbaa !47
  %156 = getelementptr inbounds nuw %struct.H5O_mesg_t, ptr %155, i32 0, i32 2
  %157 = load i8, ptr %156, align 1, !tbaa !52
  %158 = load ptr, ptr %7, align 8, !tbaa !99
  %159 = getelementptr inbounds nuw i8, ptr %158, i32 1
  store ptr %159, ptr %7, align 8, !tbaa !99
  store i8 %157, ptr %158, align 1, !tbaa !69
  %160 = load ptr, ptr %5, align 8, !tbaa !11
  %161 = getelementptr inbounds nuw %struct.H5O_t, ptr %160, i32 0, i32 7
  %162 = load i8, ptr %161, align 8, !tbaa !92
  %163 = zext i8 %162 to i32
  %164 = icmp eq i32 %163, 1
  br i1 %164, label %165, label %172

165:                                              ; preds = %154
  %166 = load ptr, ptr %7, align 8, !tbaa !99
  %167 = getelementptr inbounds nuw i8, ptr %166, i32 1
  store ptr %167, ptr %7, align 8, !tbaa !99
  store i8 0, ptr %166, align 1, !tbaa !69
  %168 = load ptr, ptr %7, align 8, !tbaa !99
  %169 = getelementptr inbounds nuw i8, ptr %168, i32 1
  store ptr %169, ptr %7, align 8, !tbaa !99
  store i8 0, ptr %168, align 1, !tbaa !69
  %170 = load ptr, ptr %7, align 8, !tbaa !99
  %171 = getelementptr inbounds nuw i8, ptr %170, i32 1
  store ptr %171, ptr %7, align 8, !tbaa !99
  store i8 0, ptr %170, align 1, !tbaa !69
  br label %201

172:                                              ; preds = %154
  %173 = load ptr, ptr %5, align 8, !tbaa !11
  %174 = getelementptr inbounds nuw %struct.H5O_t, ptr %173, i32 0, i32 8
  %175 = load i8, ptr %174, align 1, !tbaa !93
  %176 = zext i8 %175 to i32
  %177 = and i32 %176, 4
  %178 = icmp ne i32 %177, 0
  br i1 %178, label %179, label %200

179:                                              ; preds = %172
  br label %180

180:                                              ; preds = %179
  %181 = load ptr, ptr %6, align 8, !tbaa !47
  %182 = getelementptr inbounds nuw %struct.H5O_mesg_t, ptr %181, i32 0, i32 3
  %183 = load i32, ptr %182, align 4, !tbaa !68
  %184 = and i32 %183, 255
  %185 = trunc i32 %184 to i8
  %186 = load ptr, ptr %7, align 8, !tbaa !99
  store i8 %185, ptr %186, align 1, !tbaa !69
  %187 = load ptr, ptr %7, align 8, !tbaa !99
  %188 = getelementptr inbounds nuw i8, ptr %187, i32 1
  store ptr %188, ptr %7, align 8, !tbaa !99
  %189 = load ptr, ptr %6, align 8, !tbaa !47
  %190 = getelementptr inbounds nuw %struct.H5O_mesg_t, ptr %189, i32 0, i32 3
  %191 = load i32, ptr %190, align 4, !tbaa !68
  %192 = lshr i32 %191, 8
  %193 = and i32 %192, 255
  %194 = trunc i32 %193 to i8
  %195 = load ptr, ptr %7, align 8, !tbaa !99
  store i8 %194, ptr %195, align 1, !tbaa !69
  %196 = load ptr, ptr %7, align 8, !tbaa !99
  %197 = getelementptr inbounds nuw i8, ptr %196, i32 1
  store ptr %197, ptr %7, align 8, !tbaa !99
  br label %198

198:                                              ; preds = %180
  br label %199

199:                                              ; preds = %198
  br label %200

200:                                              ; preds = %199, %172
  br label %201

201:                                              ; preds = %200, %165
  %202 = load ptr, ptr %6, align 8, !tbaa !47
  %203 = getelementptr inbounds nuw %struct.H5O_mesg_t, ptr %202, i32 0, i32 5
  %204 = load ptr, ptr %203, align 8, !tbaa !50
  %205 = icmp ne ptr %204, null
  br i1 %205, label %206, label %249

206:                                              ; preds = %201
  %207 = load ptr, ptr %6, align 8, !tbaa !47
  %208 = getelementptr inbounds nuw %struct.H5O_mesg_t, ptr %207, i32 0, i32 0
  %209 = load ptr, ptr %208, align 8, !tbaa !55
  %210 = icmp ne ptr %209, @H5O_MSG_UNKNOWN
  br i1 %210, label %211, label %249

211:                                              ; preds = %206
  %212 = load ptr, ptr %6, align 8, !tbaa !47
  %213 = getelementptr inbounds nuw %struct.H5O_mesg_t, ptr %212, i32 0, i32 0
  %214 = load ptr, ptr %213, align 8, !tbaa !55
  %215 = getelementptr inbounds nuw %struct.H5O_msg_class_t, ptr %214, i32 0, i32 5
  %216 = load ptr, ptr %215, align 8, !tbaa !100
  %217 = load ptr, ptr %4, align 8, !tbaa !22
  %218 = load ptr, ptr %6, align 8, !tbaa !47
  %219 = getelementptr inbounds nuw %struct.H5O_mesg_t, ptr %218, i32 0, i32 7
  %220 = load i64, ptr %219, align 8, !tbaa !62
  %221 = load ptr, ptr %6, align 8, !tbaa !47
  %222 = getelementptr inbounds nuw %struct.H5O_mesg_t, ptr %221, i32 0, i32 6
  %223 = load ptr, ptr %222, align 8, !tbaa !63
  %224 = load ptr, ptr %6, align 8, !tbaa !47
  %225 = getelementptr inbounds nuw %struct.H5O_mesg_t, ptr %224, i32 0, i32 5
  %226 = load ptr, ptr %225, align 8, !tbaa !50
  %227 = call i32 %216(ptr noundef %217, i1 noundef zeroext false, i64 noundef %220, ptr noundef %223, ptr noundef %226)
  %228 = icmp slt i32 %227, 0
  br i1 %228, label %229, label %248

229:                                              ; preds = %211
  br label %230

230:                                              ; preds = %229
  br label %231

231:                                              ; preds = %230
  br label %232

232:                                              ; preds = %231
  %233 = load i64, ptr @H5E_OHDR_g, align 8, !tbaa !17
  %234 = load i64, ptr @H5E_CANTENCODE_g, align 8, !tbaa !17
  %235 = call i32 (ptr, ptr, i32, i64, i64, ptr, ...) @H5E_printf_stack(ptr noundef @.str, ptr noundef @__func__.H5O_msg_flush, i32 noundef 1975, i64 noundef %233, i64 noundef %234, ptr noundef @.str.45)
  br label %236

236:                                              ; preds = %232
  br label %237

237:                                              ; preds = %236
  store i8 1, ptr %10, align 1, !tbaa !13
  %238 = load i8, ptr %10, align 1, !tbaa !13, !range !15, !noundef !16
  %239 = trunc i8 %238 to i1
  %240 = zext i1 %239 to i8
  store i8 %240, ptr %10, align 1, !tbaa !13
  br label %241

241:                                              ; preds = %237
  br label %242

242:                                              ; preds = %241
  br label %243

243:                                              ; preds = %242
  store i32 -1, ptr %9, align 4, !tbaa !8
  br label %252

244:                                              ; No predecessors!
  br label %245

245:                                              ; preds = %244
  br label %246

246:                                              ; preds = %245
  br label %247

247:                                              ; preds = %246
  br label %248

248:                                              ; preds = %247, %211
  br label %249

249:                                              ; preds = %248, %206, %201
  %250 = load ptr, ptr %6, align 8, !tbaa !47
  %251 = getelementptr inbounds nuw %struct.H5O_mesg_t, ptr %250, i32 0, i32 1
  store i8 0, ptr %251, align 8, !tbaa !53
  br label %252

252:                                              ; preds = %249, %243, %42
  br label %253

253:                                              ; preds = %252, %55
  %254 = load i32, ptr %9, align 4, !tbaa !8
  call void @llvm.lifetime.end.p0(i64 1, ptr %10) #5
  call void @llvm.lifetime.end.p0(i64 4, ptr %9) #5
  call void @llvm.lifetime.end.p0(i64 4, ptr %8) #5
  call void @llvm.lifetime.end.p0(i64 8, ptr %7) #5
  ret i32 %254
}