; Function Attrs: nounwind uwtable
define range(i32 -1, 1) i32 @H5O_msg_flush(ptr noundef %0, ptr noundef readonly captures(none) %1, ptr noundef captures(none) %2) local_unnamed_addr #0 {
  %4 = load i8, ptr @H5O_init_g, align 1, !tbaa !3, !range !7, !noundef !8
  %5 = trunc nuw i8 %4 to i1
  %6 = load i8, ptr @H5_libterm_g, align 1, !range !7
  %7 = trunc nuw i8 %6 to i1
  %8 = select i1 %5, i1 true, i1 %7
  br i1 %8, label %16, label %9, !prof !9

9:                                                ; preds = %3
  store i8 1, ptr @H5O_init_g, align 1, !tbaa !3
  %10 = tail call i32 @H5O__init_package() #7
  %11 = icmp slt i32 %10, 0
  br i1 %11, label %12, label %._crit_edge

._crit_edge:                                      ; preds = %9
  %.pre = load i8, ptr @H5O_init_g, align 1, !tbaa !3, !range !7
  %.pre51 = load i8, ptr @H5_libterm_g, align 1, !range !7
  %.pre52 = trunc nuw i8 %.pre to i1
  %.pre53 = trunc nuw i8 %.pre51 to i1
  br label %16

12:                                               ; preds = %9
  store i8 0, ptr @H5O_init_g, align 1, !tbaa !3
  %13 = load i64, ptr @H5E_FUNC_g, align 8, !tbaa !10
  %14 = load i64, ptr @H5E_CANTINIT_g, align 8, !tbaa !10
  %15 = tail call i32 (ptr, ptr, i32, i64, i64, ptr, ...) @H5E_printf_stack(ptr noundef nonnull @.str, ptr noundef nonnull @__func__.H5O_msg_flush, i32 noundef 1905, i64 noundef %13, i64 noundef %14, ptr noundef nonnull @.str.1) #7
  br label %98

16:                                               ; preds = %._crit_edge, %3
  %.pre-phi54 = phi i1 [ %.pre53, %._crit_edge ], [ %7, %3 ]
  %.pre-phi = phi i1 [ %.pre52, %._crit_edge ], [ %5, %3 ]
  %17 = xor i1 %.pre-phi54, true
  %18 = select i1 %.pre-phi, i1 true, i1 %17
  br i1 %18, label %19, label %98, !prof !9

19:                                               ; preds = %16
  %20 = getelementptr inbounds nuw i8, ptr %2, i64 32
  %21 = load ptr, ptr %20, align 8, !tbaa !58
  %22 = getelementptr inbounds nuw i8, ptr %1, i64 288
  %23 = load i8, ptr %22, align 8, !tbaa !83
  %24 = icmp eq i8 %23, 1
  br i1 %24, label %32, label %25

25:                                               ; preds = %19
  %26 = getelementptr inbounds nuw i8, ptr %1, i64 289
  %27 = load i8, ptr %26, align 1, !tbaa !84
  %28 = lshr i8 %27, 1
  %29 = and i8 %28, 2
  %30 = or disjoint i8 %29, 4
  %31 = zext nneg i8 %30 to i64
  br label %32

32:                                               ; preds = %19, %25
  %33 = phi i64 [ %31, %25 ], [ 8, %19 ]
  %34 = sub nsw i64 0, %33
  %35 = getelementptr inbounds i8, ptr %21, i64 %34
  %36 = load ptr, ptr %2, align 8, !tbaa !50
  %37 = icmp eq ptr %36, @H5O_MSG_UNKNOWN
  br i1 %37, label %38, label %42

38:                                               ; preds = %32
  %39 = getelementptr inbounds nuw i8, ptr %2, i64 24
  %40 = load ptr, ptr %39, align 8, !tbaa !42
  %41 = load i32, ptr %40, align 4, !tbaa !18
  br label %45

42:                                               ; preds = %32
  %43 = load i32, ptr %36, align 8, !tbaa !20
  %44 = and i32 %43, 255
  br label %45

45:                                               ; preds = %42, %38
  %.044 = phi i32 [ %41, %38 ], [ %44, %42 ]
  %46 = getelementptr inbounds nuw i8, ptr %35, i64 1
  br i1 %24, label %47, label %51

47:                                               ; preds = %45
  %48 = lshr i32 %.044, 8
  %49 = trunc i32 %48 to i8
  store i8 %49, ptr %46, align 1, !tbaa !62
  %50 = getelementptr inbounds nuw i8, ptr %35, i64 2
  br label %51

51:                                               ; preds = %45, %47
  %.045 = phi ptr [ %50, %47 ], [ %46, %45 ]
  %.sink = trunc i32 %.044 to i8
  store i8 %.sink, ptr %35, align 1, !tbaa !62
  %52 = getelementptr inbounds nuw i8, ptr %2, i64 40
  %53 = load i64, ptr %52, align 8, !tbaa !57
  %54 = trunc i64 %53 to i8
  store i8 %54, ptr %.045, align 1, !tbaa !62
  %55 = getelementptr inbounds nuw i8, ptr %.045, i64 1
  %56 = load i64, ptr %52, align 8, !tbaa !57
  %57 = lshr i64 %56, 8
  %58 = trunc i64 %57 to i8
  store i8 %58, ptr %55, align 1, !tbaa !62
  %59 = getelementptr inbounds nuw i8, ptr %.045, i64 2
  %60 = getelementptr inbounds nuw i8, ptr %2, i64 9
  %61 = load i8, ptr %60, align 1, !tbaa !47
  %62 = getelementptr inbounds nuw i8, ptr %.045, i64 3
  store i8 %61, ptr %59, align 1, !tbaa !62
  %63 = load i8, ptr %22, align 8, !tbaa !83
  %64 = icmp eq i8 %63, 1
  br i1 %64, label %65, label %68

65:                                               ; preds = %51
  %66 = getelementptr inbounds nuw i8, ptr %.045, i64 4
  store i8 0, ptr %62, align 1, !tbaa !62
  %67 = getelementptr inbounds nuw i8, ptr %.045, i64 5
  store i8 0, ptr %66, align 1, !tbaa !62
  store i8 0, ptr %67, align 1, !tbaa !62
  br label %80

68:                                               ; preds = %51
  %69 = getelementptr inbounds nuw i8, ptr %1, i64 289
  %70 = load i8, ptr %69, align 1, !tbaa !84
  %71 = and i8 %70, 4
  %.not = icmp eq i8 %71, 0
  br i1 %.not, label %80, label %72

72:                                               ; preds = %68
  %73 = getelementptr inbounds nuw i8, ptr %2, i64 12
  %74 = load i32, ptr %73, align 4, !tbaa !61
  %75 = trunc i32 %74 to i8
  store i8 %75, ptr %62, align 1, !tbaa !62
  %76 = getelementptr inbounds nuw i8, ptr %.045, i64 4
  %77 = load i32, ptr %73, align 4, !tbaa !61
  %78 = lshr i32 %77, 8
  %79 = trunc i32 %78 to i8
  store i8 %79, ptr %76, align 1, !tbaa !62
  br label %80

80:                                               ; preds = %68, %72, %65
  %81 = getelementptr inbounds nuw i8, ptr %2, i64 24
  %82 = load ptr, ptr %81, align 8, !tbaa !42
  %.not49 = icmp eq ptr %82, null
  br i1 %.not49, label %96, label %83

83:                                               ; preds = %80
  %84 = load ptr, ptr %2, align 8, !tbaa !50
  %.not50 = icmp eq ptr %84, @H5O_MSG_UNKNOWN
  br i1 %.not50, label %96, label %85

85:                                               ; preds = %83
  %86 = getelementptr inbounds nuw i8, ptr %84, i64 40
  %87 = load ptr, ptr %86, align 8, !tbaa !87
  %88 = load i64, ptr %52, align 8, !tbaa !57
  %89 = load ptr, ptr %20, align 8, !tbaa !58
  %90 = tail call i32 %87(ptr noundef %0, i1 noundef zeroext false, i64 noundef %88, ptr noundef %89, ptr noundef nonnull %82) #7
  %91 = icmp slt i32 %90, 0
  br i1 %91, label %92, label %96

92:                                               ; preds = %85
  %93 = load i64, ptr @H5E_OHDR_g, align 8, !tbaa !10
  %94 = load i64, ptr @H5E_CANTENCODE_g, align 8, !tbaa !10
  %95 = tail call i32 (ptr, ptr, i32, i64, i64, ptr, ...) @H5E_printf_stack(ptr noundef nonnull @.str, ptr noundef nonnull @__func__.H5O_msg_flush, i32 noundef 1975, i64 noundef %93, i64 noundef %94, ptr noundef nonnull @.str.45) #7
  br label %98

96:                                               ; preds = %85, %83, %80
  %97 = getelementptr inbounds nuw i8, ptr %2, i64 8
  store i8 0, ptr %97, align 8, !tbaa !48
  br label %98

98:                                               ; preds = %12, %92, %96, %16
  %.0 = phi i32 [ -1, %12 ], [ -1, %92 ], [ 0, %96 ], [ 0, %16 ]
  ret i32 %.0
}